target datalayout = "e-m:e-p270:32:32-p271:32:32-p272:64:64-i64:64-i128:128-f80:128-n8:16:32:64-S128"
target triple = "x86_64-pc-linux-gnu"

%struct.eio_obj = type { i32, ptr, ptr, i8 }
%struct.server_io_info = type { ptr, i32, i8, %struct.io_hdr_t, ptr, i32, i8, i32, i32, ptr, ptr, i32, i8 }
%struct.io_hdr_t = type { i32, i16, i16, i32 }

@.str.16 = private unnamed_addr constant [18 x i8] c"  false, shutdown\00", align 1
@.str.29 = private unnamed_addr constant [13 x i8] c"  false, eof\00", align 1
@.str.32 = private unnamed_addr constant [8 x i8] c"  false\00", align 1
@.str.45 = private unnamed_addr constant [24 x i8] c"Called _server_writable\00", align 1
@.str.46 = private unnamed_addr constant [33 x i8] c"  true, s->msg_queue length = %d\00", align 1

; Function Attrs: nounwind uwtable
define internal zeroext i1 @_server_writable(ptr noundef %0) #0 {
  %2 = alloca i1, align 1
  %3 = alloca ptr, align 8
  %4 = alloca ptr, align 8
  %5 = alloca i32, align 4
  store ptr %0, ptr %3, align 8
  call void @llvm.lifetime.start.p0(i64 8, ptr %4) #9
  %6 = load ptr, ptr %3, align 8
  %7 = getelementptr inbounds nuw %struct.eio_obj, ptr %6, i32 0, i32 1
  %8 = load ptr, ptr %7, align 8
  store ptr %8, ptr %4, align 8
  br label %9

9:                                                ; preds = %1
  br label %10

10:                                               ; preds = %9
  %11 = call i32 @get_log_level()
  %12 = icmp sge i32 %11, 8
  br i1 %12, label %13, label %14

13:                                               ; preds = %10
  call void (i32, ptr, ...) @log_var(i32 noundef 8, ptr noundef @.str.45)
  br label %14

14:                                               ; preds = %13, %10
  br label %15

15:                                               ; preds = %14
  br label %16

16:                                               ; preds = %15
  br label %17

17:                                               ; preds = %16
  br label %18

18:                                               ; preds = %17
  %19 = load ptr, ptr %4, align 8
  %20 = getelementptr inbounds nuw %struct.server_io_info, ptr %19, i32 0, i32 12
  %21 = load i8, ptr %20, align 4, !range !8, !noundef !9
  %22 = trunc i8 %21 to i1
  br i1 %22, label %23, label %34

23:                                               ; preds = %18
  br label %24

24:                                               ; preds = %23
  br label %25

25:                                               ; preds = %24
  %26 = call i32 @get_log_level()
  %27 = icmp sge i32 %26, 8
  br i1 %27, label %28, label %29

28:                                               ; preds = %25
  call void (i32, ptr, ...) @log_var(i32 noundef 8, ptr noundef @.str.29)
  br label %29

29:                                               ; preds = %28, %25
  br label %30

30:                                               ; preds = %29
  br label %31

31:                                               ; preds = %30
  br label %32

32:                                               ; preds = %31
  br label %33

33:                                               ; preds = %32
  store i1 false, ptr %2, align 1
  store i32 1, ptr %5, align 4
  br label %89

34:                                               ; preds = %18
  %35 = load ptr, ptr %3, align 8
  %36 = getelementptr inbounds nuw %struct.eio_obj, ptr %35, i32 0, i32 3
  %37 = load i8, ptr %36, align 8, !range !8, !noundef !9
  %38 = trunc i8 %37 to i1
  %39 = zext i1 %38 to i32
  %40 = icmp eq i32 %39, 1
  br i1 %40, label %41, label %52

41:                                               ; preds = %34
  br label %42

42:                                               ; preds = %41
  br label %43

43:                                               ; preds = %42
  %44 = call i32 @get_log_level()
  %45 = icmp sge i32 %44, 8
  br i1 %45, label %46, label %47

46:                                               ; preds = %43
  call void (i32, ptr, ...) @log_var(i32 noundef 8, ptr noundef @.str.16)
  br label %47

47:                                               ; preds = %46, %43
  br label %48

48:                                               ; preds = %47
  br label %49

49:                                               ; preds = %48
  br label %50

50:                                               ; preds = %49
  br label %51

51:                                               ; preds = %50
  store i1 false, ptr %2, align 1
  store i32 1, ptr %5, align 4
  br label %89

52:                                               ; preds = %34
  %53 = load ptr, ptr %4, align 8
  %54 = getelementptr inbounds nuw %struct.server_io_info, ptr %53, i32 0, i32 10
  %55 = load ptr, ptr %54, align 8
  %56 = icmp ne ptr %55, null
  br i1 %56, label %63, label %57

57:                                               ; preds = %52
  %58 = load ptr, ptr %4, align 8
  %59 = getelementptr inbounds nuw %struct.server_io_info, ptr %58, i32 0, i32 9
  %60 = load ptr, ptr %59, align 8
  %61 = call i32 @list_is_empty(ptr noundef %60)
  %62 = icmp ne i32 %61, 0
  br i1 %62, label %78, label %63

63:                                               ; preds = %57, %52
  br label %64

64:                                               ; preds = %63
  br label %65

65:                                               ; preds = %64
  %66 = call i32 @get_log_level()
  %67 = icmp sge i32 %66, 8
  br i1 %67, label %68, label %73

68:                                               ; preds = %65
  %69 = load ptr, ptr %4, align 8
  %70 = getelementptr inbounds nuw %struct.server_io_info, ptr %69, i32 0, i32 9
  %71 = load ptr, ptr %70, align 8
  %72 = call i32 @list_count(ptr noundef %71)
  call void (i32, ptr, ...) @log_var(i32 noundef 8, ptr noundef @.str.46, i32 noundef %72)
  br label %73

73:                                               ; preds = %68, %65
  br label %74

74:                                               ; preds = %73
  br label %75

75:                                               ; preds = %74
  br label %76

76:                                               ; preds = %75
  br label %77

77:                                               ; preds = %76
  store i1 true, ptr %2, align 1
  store i32 1, ptr %5, align 4
  br label %89

78:                                               ; preds = %57
  br label %79

79:                                               ; preds = %78
  br label %80

80:                                               ; preds = %79
  %81 = call i32 @get_log_level()
  %82 = icmp sge i32 %81, 8
  br i1 %82, label %83, label %84

83:                                               ; preds = %80
  call void (i32, ptr, ...) @log_var(i32 noundef 8, ptr noundef @.str.32)
  br label %84

84:                                               ; preds = %83, %80
  br label %85

85:                                               ; preds = %84
  br label %86

86:                                               ; preds = %85
  br label %87

87:                                               ; preds = %86
  br label %88

88:                                               ; preds = %87
  store i1 false, ptr %2, align 1
  store i32 1, ptr %5, align 4
  br label %89

89:                                               ; preds = %88, %77, %51, %33
  call void @llvm.lifetime.end.p0(i64 8, ptr %4) #9
  %90 = load i1, ptr %2, align 1
  ret i1 %90
}