; Function Attrs: nounwind uwtable
define internal noundef zeroext i1 @_server_writable(ptr noundef readonly captures(none) %0) #0 {
  %2 = getelementptr inbounds nuw i8, ptr %0, i64 8
  %3 = load ptr, ptr %2, align 8
  %4 = tail call i32 @get_log_level() #10
  %5 = icmp sgt i32 %4, 7
  br i1 %5, label %6, label %7

6:                                                ; preds = %1
  tail call void (i32, ptr, ...) @log_var(i32 noundef 8, ptr noundef nonnull @.str.45) #10
  br label %7

7:                                                ; preds = %6, %1
  %8 = getelementptr inbounds nuw i8, ptr %3, i64 76
  %9 = load i8, ptr %8, align 4, !range !8, !noundef !9
  %10 = trunc nuw i8 %9 to i1
  br i1 %10, label %11, label %15

11:                                               ; preds = %7
  %12 = tail call i32 @get_log_level() #10
  %13 = icmp sgt i32 %12, 7
  br i1 %13, label %14, label %41

14:                                               ; preds = %11
  tail call void (i32, ptr, ...) @log_var(i32 noundef 8, ptr noundef nonnull @.str.29) #10
  br label %41

15:                                               ; preds = %7
  %16 = getelementptr inbounds nuw i8, ptr %0, i64 24
  %17 = load i8, ptr %16, align 8, !range !8, !noundef !9
  %18 = trunc nuw i8 %17 to i1
  br i1 %18, label %19, label %23

19:                                               ; preds = %15
  %20 = tail call i32 @get_log_level() #10
  %21 = icmp sgt i32 %20, 7
  br i1 %21, label %22, label %41

22:                                               ; preds = %19
  tail call void (i32, ptr, ...) @log_var(i32 noundef 8, ptr noundef nonnull @.str.16) #10
  br label %41

23:                                               ; preds = %15
  %24 = getelementptr inbounds nuw i8, ptr %3, i64 64
  %25 = load ptr, ptr %24, align 8
  %.not = icmp eq ptr %25, null
  br i1 %.not, label %26, label %30

26:                                               ; preds = %23
  %27 = getelementptr inbounds nuw i8, ptr %3, i64 56
  %28 = load ptr, ptr %27, align 8
  %29 = tail call i32 @list_is_empty(ptr noundef %28) #10
  %.not7 = icmp eq i32 %29, 0
  br i1 %.not7, label %30, label %37

30:                                               ; preds = %26, %23
  %31 = tail call i32 @get_log_level() #10
  %32 = icmp sgt i32 %31, 7
  br i1 %32, label %33, label %41

33:                                               ; preds = %30
  %34 = getelementptr inbounds nuw i8, ptr %3, i64 56
  %35 = load ptr, ptr %34, align 8
  %36 = tail call i32 @list_count(ptr noundef %35) #10
  tail call void (i32, ptr, ...) @log_var(i32 noundef 8, ptr noundef nonnull @.str.46, i32 noundef %36) #10
  br label %41

37:                                               ; preds = %26
  %38 = tail call i32 @get_log_level() #10
  %39 = icmp sgt i32 %38, 7
  br i1 %39, label %40, label %41

40:                                               ; preds = %37
  tail call void (i32, ptr, ...) @log_var(i32 noundef 8, ptr noundef nonnull @.str.32) #10
  br label %41

41:                                               ; preds = %37, %40, %30, %33, %19, %22, %11, %14
  %.0 = phi i1 [ false, %14 ], [ false, %11 ], [ false, %22 ], [ false, %19 ], [ true, %33 ], [ true, %30 ], [ false, %40 ], [ false, %37 ]
  ret i1 %.0
}